target datalayout = "e-m:e-p270:32:32-p271:32:32-p272:64:64-i64:64-i128:128-f80:128-n8:16:32:64-S128"
target triple = "x86_64-pc-linux-gnu"

%struct.MEMO = type { i64, i64, i64, i64, %union.anon.1 }
%union.anon.1 = type { i64 }

; Function Attrs: inlinehint nounwind sspstrong uwtable
define internal ptr @MEMO_NEW(i64 noundef %0, i64 noundef %1, i64 noundef %2) #3 {
  %4 = alloca i64, align 8
  %5 = alloca i64, align 8
  %6 = alloca i64, align 8
  %7 = alloca ptr, align 8
  store i64 %0, ptr %4, align 8, !tbaa !14
  store i64 %1, ptr %5, align 8, !tbaa !14
  store i64 %2, ptr %6, align 8, !tbaa !14
  call void @llvm.lifetime.start.p0(i64 8, ptr %7) #22
  %8 = call i64 @rb_imemo_new(i32 noundef 5, i64 noundef 0, i64 noundef 40)
  %9 = inttoptr i64 %8 to ptr
  store ptr %9, ptr %7, align 8, !tbaa !34
  %10 = load i64, ptr %4, align 8, !tbaa !14
  %11 = load ptr, ptr %7, align 8, !tbaa !34
  %12 = getelementptr inbounds nuw %struct.MEMO, ptr %11, i32 0, i32 2
  store i64 %10, ptr %12, align 8, !tbaa !14
  %13 = load i64, ptr %5, align 8, !tbaa !14
  %14 = load ptr, ptr %7, align 8, !tbaa !34
  %15 = getelementptr inbounds nuw %struct.MEMO, ptr %14, i32 0, i32 3
  store i64 %13, ptr %15, align 8, !tbaa !14
  %16 = load i64, ptr %6, align 8, !tbaa !14
  %17 = load ptr, ptr %7, align 8, !tbaa !34
  %18 = getelementptr inbounds nuw %struct.MEMO, ptr %17, i32 0, i32 4
  store i64 %16, ptr %18, align 8, !tbaa !31
  %19 = load ptr, ptr %7, align 8, !tbaa !34
  call void @llvm.lifetime.end.p0(i64 8, ptr %7) #22
  ret ptr %19
}

; Function Attrs: nounwind sspstrong uwtable
define internal i64 @enum_partition(i64 noundef %0) #0 {
  %2 = alloca i64, align 8
  %3 = alloca i64, align 8
  %4 = alloca ptr, align 8
  %5 = alloca i64, align 8
  %6 = alloca i32, align 4
  store i64 %0, ptr %3, align 8, !tbaa !14
  call void @llvm.lifetime.start.p0(i64 8, ptr %4) #22
  br label %7

7:                                                ; preds = %1
  %8 = call i32 @rb_block_given_p()
  %9 = icmp ne i32 %8, 0
  br i1 %9, label %16, label %10

10:                                               ; preds = %7
  %11 = load i64, ptr %3, align 8, !tbaa !14
  %12 = call i64 @rb_frame_this_func()
  %13 = call i64 @rb_id2sym(i64 noundef %12)
  store i64 %13, ptr %5, align 8, !tbaa !14
  %14 = load i64, ptr %5, align 8, !tbaa !14
  %15 = call i64 @rb_enumeratorize_with_size(i64 noundef %11, i64 noundef %14, i32 noundef 0, ptr noundef null, ptr noundef @enum_size)
  store i64 %15, ptr %2, align 8
  store i32 1, ptr %6, align 4
  br label %33

16:                                               ; preds = %7
  br label %17

17:                                               ; preds = %16
  br label %18

18:                                               ; preds = %17
  %19 = call i64 @rb_ary_new()
  %20 = call i64 @rb_ary_new()
  %21 = call ptr @MEMO_NEW(i64 noundef %19, i64 noundef %20, i64 noundef 0)
  store ptr %21, ptr %4, align 8, !tbaa !34
  %22 = load i64, ptr %3, align 8, !tbaa !14
  %23 = load ptr, ptr %4, align 8, !tbaa !34
  %24 = ptrtoint ptr %23 to i64
  %25 = call i64 @rb_block_call(i64 noundef %22, i64 noundef 3073, i32 noundef 0, ptr noundef null, ptr noundef @partition_i, i64 noundef %24)
  %26 = load ptr, ptr %4, align 8, !tbaa !34
  %27 = getelementptr inbounds nuw %struct.MEMO, ptr %26, i32 0, i32 2
  %28 = load i64, ptr %27, align 8, !tbaa !46
  %29 = load ptr, ptr %4, align 8, !tbaa !34
  %30 = getelementptr inbounds nuw %struct.MEMO, ptr %29, i32 0, i32 3
  %31 = load i64, ptr %30, align 8, !tbaa !48
  %32 = call i64 @rb_assoc_new(i64 noundef %28, i64 noundef %31)
  store i64 %32, ptr %2, align 8
  store i32 1, ptr %6, align 4
  br label %33

33:                                               ; preds = %18, %10
  call void @llvm.lifetime.end.p0(i64 8, ptr %4) #22
  %34 = load i64, ptr %2, align 8
  ret i64 %34
}