; Function Attrs: nounwind sspstrong uwtable
define internal i64 @enum_partition(i64 noundef %0) #0 {
  %2 = tail call i32 @rb_block_given_p() #14
  %.not = icmp eq i32 %2, 0
  br i1 %.not, label %3, label %7

3:                                                ; preds = %1
  %4 = tail call i64 @rb_frame_this_func() #14
  %5 = tail call i64 @rb_id2sym(i64 noundef %4) #14
  %6 = tail call i64 @rb_enumeratorize_with_size(i64 noundef %0, i64 noundef %5, i32 noundef 0, ptr noundef null, ptr noundef nonnull @enum_size) #14
  br label %19

7:                                                ; preds = %1
  %8 = tail call i64 @rb_ary_new() #14
  %9 = tail call i64 @rb_ary_new() #14
  %10 = tail call i64 @rb_imemo_new(i32 noundef 5, i64 noundef 0, i64 noundef 40) #14
  %11 = inttoptr i64 %10 to ptr
  %12 = getelementptr inbounds nuw i8, ptr %11, i64 16
  store i64 %8, ptr %12, align 8, !tbaa !7
  %13 = getelementptr inbounds nuw i8, ptr %11, i64 24
  store i64 %9, ptr %13, align 8, !tbaa !7
  %14 = getelementptr inbounds nuw i8, ptr %11, i64 32
  store i64 0, ptr %14, align 8, !tbaa !22
  %15 = tail call i64 @rb_block_call(i64 noundef %0, i64 noundef 3073, i32 noundef 0, ptr noundef null, ptr noundef nonnull @partition_i, i64 noundef %10) #14
  %16 = load i64, ptr %12, align 8, !tbaa !60
  %17 = load i64, ptr %13, align 8, !tbaa !67
  %18 = tail call i64 @rb_assoc_new(i64 noundef %16, i64 noundef %17) #14
  br label %19

19:                                               ; preds = %7, %3
  %.0 = phi i64 [ %18, %7 ], [ %6, %3 ]
  ret i64 %.0
}